; Function Attrs: mustprogress uwtable
define void @_ZNK8facebook5velox7MapType8toStringB5cxx11Ev(ptr noalias sret(%"class.std::__cxx11::basic_string") align 8 %agg.result, ptr nocapture noundef nonnull readonly align 8 dereferenceable(80) %this) unnamed_addr #0 align 2 personality ptr @__gxx_personality_v0 {
entry:
  %ref.tmp = alloca %"class.std::__cxx11::basic_string", align 8
  %ref.tmp2 = alloca %"class.std::__cxx11::basic_string", align 8
  %ref.tmp3 = alloca %"class.std::__cxx11::basic_string", align 8
  %ref.tmp4 = alloca %"class.std::__cxx11::basic_string", align 8
  %ref.tmp8 = alloca %"class.std::__cxx11::basic_string", align 8
  %keyType_.i = getelementptr inbounds i8, ptr %this, i64 24
  %0 = load ptr, ptr %keyType_.i, align 8
  %vtable = load ptr, ptr %0, align 8
  %vfn = getelementptr inbounds i8, ptr %vtable, i64 80
  %1 = load ptr, ptr %vfn, align 8
  call void %1(ptr nonnull sret(%"class.std::__cxx11::basic_string") align 8 %ref.tmp4, ptr noundef nonnull align 8 dereferenceable(17) %0)
  %call.i5 = invoke noundef nonnull align 8 dereferenceable(32) ptr @_ZNSt7__cxx1112basic_stringIcSt11char_traitsIcESaIcEE6insertEmPKc(ptr noundef nonnull align 8 dereferenceable(32) %ref.tmp4, i64 noundef 0, ptr noundef nonnull @.str.33)
          to label %invoke.cont unwind label %lpad

invoke.cont:                                      ; preds = %entry
  call void @_ZNSt7__cxx1112basic_stringIcSt11char_traitsIcESaIcEEC1EOS4_(ptr noundef nonnull align 8 dereferenceable(32) %ref.tmp3, ptr noundef nonnull align 8 dereferenceable(32) %call.i5) #37
  %call.i6 = invoke noundef nonnull align 8 dereferenceable(32) ptr @_ZNSt7__cxx1112basic_stringIcSt11char_traitsIcESaIcEE6appendEPKc(ptr noundef nonnull align 8 dereferenceable(32) %ref.tmp3, ptr noundef nonnull @.str.34)
          to label %invoke.cont7 unwind label %lpad6

invoke.cont7:                                     ; preds = %invoke.cont
  call void @_ZNSt7__cxx1112basic_stringIcSt11char_traitsIcESaIcEEC1EOS4_(ptr noundef nonnull align 8 dereferenceable(32) %ref.tmp2, ptr noundef nonnull align 8 dereferenceable(32) %call.i6) #37
  %valueType_.i = getelementptr inbounds i8, ptr %this, i64 40
  %2 = load ptr, ptr %valueType_.i, align 8
  %vtable13 = load ptr, ptr %2, align 8
  %vfn14 = getelementptr inbounds i8, ptr %vtable13, i64 80
  %3 = load ptr, ptr %vfn14, align 8
  invoke void %3(ptr nonnull sret(%"class.std::__cxx11::basic_string") align 8 %ref.tmp8, ptr noundef nonnull align 8 dereferenceable(17) %2)
          to label %invoke.cont15 unwind label %lpad9

invoke.cont15:                                    ; preds = %invoke.cont7
  %call.i = call noundef i64 @_ZNKSt7__cxx1112basic_stringIcSt11char_traitsIcESaIcEE4sizeEv(ptr noundef nonnull align 8 dereferenceable(32) %ref.tmp2) #37, !noalias !62
  %call1.i = call noundef i64 @_ZNKSt7__cxx1112basic_stringIcSt11char_traitsIcESaIcEE4sizeEv(ptr noundef nonnull align 8 dereferenceable(32) %ref.tmp8) #37, !noalias !62
  %add.i = add i64 %call1.i, %call.i
  %call2.i = call noundef i64 @_ZNKSt7__cxx1112basic_stringIcSt11char_traitsIcESaIcEE8capacityEv(ptr noundef nonnull align 8 dereferenceable(32) %ref.tmp2) #37, !noalias !62
  %cmp.i = icmp ugt i64 %add.i, %call2.i
  br i1 %cmp.i, label %land.lhs.true.i, label %if.end7.i

land.lhs.true.i:                                  ; preds = %invoke.cont15
  %call3.i = call noundef i64 @_ZNKSt7__cxx1112basic_stringIcSt11char_traitsIcESaIcEE8capacityEv(ptr noundef nonnull align 8 dereferenceable(32) %ref.tmp8) #37, !noalias !62
  %cmp4.not.i = icmp ugt i64 %add.i, %call3.i
  br i1 %cmp4.not.i, label %if.end7.i, label %if.then5.i

if.then5.i:                                       ; preds = %land.lhs.true.i
  %call6.i7 = invoke noundef nonnull align 8 dereferenceable(32) ptr @_ZNSt7__cxx1112basic_stringIcSt11char_traitsIcESaIcEE6insertEmRKS4_(ptr noundef nonnull align 8 dereferenceable(32) %ref.tmp8, i64 noundef 0, ptr noundef nonnull align 8 dereferenceable(32) %ref.tmp2)
          to label %invoke.cont17 unwind label %lpad16

if.end7.i:                                        ; preds = %land.lhs.true.i, %invoke.cont15
  %call8.i8 = invoke noundef nonnull align 8 dereferenceable(32) ptr @_ZNSt7__cxx1112basic_stringIcSt11char_traitsIcESaIcEE6appendERKS4_(ptr noundef nonnull align 8 dereferenceable(32) %ref.tmp2, ptr noundef nonnull align 8 dereferenceable(32) %ref.tmp8)
          to label %invoke.cont17 unwind label %lpad16

invoke.cont17:                                    ; preds = %if.then5.i, %if.end7.i
  %call8.sink.i = phi ptr [ %call6.i7, %if.then5.i ], [ %call8.i8, %if.end7.i ]
  call void @_ZNSt7__cxx1112basic_stringIcSt11char_traitsIcESaIcEEC1EOS4_(ptr noundef nonnull align 8 dereferenceable(32) %ref.tmp, ptr noundef nonnull align 8 dereferenceable(32) %call8.sink.i) #37
  %call.i910 = invoke noundef nonnull align 8 dereferenceable(32) ptr @_ZNSt7__cxx1112basic_stringIcSt11char_traitsIcESaIcEE6appendEPKc(ptr noundef nonnull align 8 dereferenceable(32) %ref.tmp, ptr noundef nonnull @.str.28)
          to label %invoke.cont19 unwind label %lpad18

invoke.cont19:                                    ; preds = %invoke.cont17
  call void @_ZNSt7__cxx1112basic_stringIcSt11char_traitsIcESaIcEEC1EOS4_(ptr noundef nonnull align 8 dereferenceable(32) %agg.result, ptr noundef nonnull align 8 dereferenceable(32) %call.i910) #37
  call void @_ZNSt7__cxx1112basic_stringIcSt11char_traitsIcESaIcEED1Ev(ptr noundef nonnull align 8 dereferenceable(32) %ref.tmp) #37
  call void @_ZNSt7__cxx1112basic_stringIcSt11char_traitsIcESaIcEED1Ev(ptr noundef nonnull align 8 dereferenceable(32) %ref.tmp8) #37
  call void @_ZNSt7__cxx1112basic_stringIcSt11char_traitsIcESaIcEED1Ev(ptr noundef nonnull align 8 dereferenceable(32) %ref.tmp2) #37
  call void @_ZNSt7__cxx1112basic_stringIcSt11char_traitsIcESaIcEED1Ev(ptr noundef nonnull align 8 dereferenceable(32) %ref.tmp3) #37
  call void @_ZNSt7__cxx1112basic_stringIcSt11char_traitsIcESaIcEED1Ev(ptr noundef nonnull align 8 dereferenceable(32) %ref.tmp4) #37
  ret void

lpad:                                             ; preds = %entry
  %4 = landingpad { ptr, i32 }
          cleanup
  br label %ehcleanup22

lpad6:                                            ; preds = %invoke.cont
  %5 = landingpad { ptr, i32 }
          cleanup
  br label %ehcleanup21

lpad9:                                            ; preds = %invoke.cont7
  %6 = landingpad { ptr, i32 }
          cleanup
  br label %ehcleanup20

lpad16:                                           ; preds = %if.end7.i, %if.then5.i
  %7 = landingpad { ptr, i32 }
          cleanup
  br label %ehcleanup

lpad18:                                           ; preds = %invoke.cont17
  %8 = landingpad { ptr, i32 }
          cleanup
  call void @_ZNSt7__cxx1112basic_stringIcSt11char_traitsIcESaIcEED1Ev(ptr noundef nonnull align 8 dereferenceable(32) %ref.tmp) #37
  br label %ehcleanup

ehcleanup:                                        ; preds = %lpad18, %lpad16
  %.pn = phi { ptr, i32 } [ %8, %lpad18 ], [ %7, %lpad16 ]
  call void @_ZNSt7__cxx1112basic_stringIcSt11char_traitsIcESaIcEED1Ev(ptr noundef nonnull align 8 dereferenceable(32) %ref.tmp8) #37
  br label %ehcleanup20

ehcleanup20:                                      ; preds = %ehcleanup, %lpad9
  %.pn.pn = phi { ptr, i32 } [ %.pn, %ehcleanup ], [ %6, %lpad9 ]
  call void @_ZNSt7__cxx1112basic_stringIcSt11char_traitsIcESaIcEED1Ev(ptr noundef nonnull align 8 dereferenceable(32) %ref.tmp2) #37
  br label %ehcleanup21

ehcleanup21:                                      ; preds = %ehcleanup20, %lpad6
  %.pn.pn.pn = phi { ptr, i32 } [ %.pn.pn, %ehcleanup20 ], [ %5, %lpad6 ]
  call void @_ZNSt7__cxx1112basic_stringIcSt11char_traitsIcESaIcEED1Ev(ptr noundef nonnull align 8 dereferenceable(32) %ref.tmp3) #37
  br label %ehcleanup22

ehcleanup22:                                      ; preds = %ehcleanup21, %lpad
  %.pn.pn.pn.pn = phi { ptr, i32 } [ %.pn.pn.pn, %ehcleanup21 ], [ %4, %lpad ]
  call void @_ZNSt7__cxx1112basic_stringIcSt11char_traitsIcESaIcEED1Ev(ptr noundef nonnull align 8 dereferenceable(32) %ref.tmp4) #37
  resume { ptr, i32 } %.pn.pn.pn.pn
}